target datalayout = "e-m:e-p270:32:32-p271:32:32-p272:64:64-i64:64-i128:128-f80:128-n8:16:32:64-S128"
target triple = "x86_64-pc-linux-gnu"

%"struct.std::pair.111" = type { i32, i32 }
%class.vector.110 = type { ptr }

; Function Attrs: mustprogress nounwind uwtable
define linkonce_odr hidden void @_ZNSt4pairIjjEC2ERKjS2_Qcl16_S_constructibleIRKT_RKT0_EE(ptr noundef nonnull align 4 dereferenceable(8) %0, ptr noundef nonnull align 4 dereferenceable(4) %1, ptr noundef nonnull align 4 dereferenceable(4) %2) unnamed_addr #6 comdat align 2 {
  %4 = alloca ptr, align 8
  %5 = alloca ptr, align 8
  %6 = alloca ptr, align 8
  store ptr %0, ptr %4, align 8, !tbaa !563
  store ptr %1, ptr %5, align 8, !tbaa !183
  store ptr %2, ptr %6, align 8, !tbaa !183
  %7 = load ptr, ptr %4, align 8
  %8 = getelementptr inbounds nuw %"struct.std::pair.111", ptr %7, i32 0, i32 0
  %9 = load ptr, ptr %5, align 8, !tbaa !183
  %10 = load i32, ptr %9, align 4, !tbaa !19
  store i32 %10, ptr %8, align 4, !tbaa !184
  %11 = getelementptr inbounds nuw %"struct.std::pair.111", ptr %7, i32 0, i32 1
  %12 = load ptr, ptr %6, align 8, !tbaa !183
  %13 = load i32, ptr %12, align 4, !tbaa !19
  store i32 %13, ptr %11, align 4, !tbaa !186
  ret void
}

; Function Attrs: mustprogress nounwind uwtable
define linkonce_odr hidden void @_ZN6vectorISt4pairIjjELb0EjE6shrinkEj(ptr noundef nonnull align 8 dereferenceable(8) %0, i32 noundef %1) #6 comdat align 2 {
  %3 = alloca ptr, align 8
  %4 = alloca i32, align 4
  store ptr %0, ptr %3, align 8, !tbaa !558
  store i32 %1, ptr %4, align 4, !tbaa !19
  %5 = load ptr, ptr %3, align 8
  %6 = getelementptr inbounds nuw %class.vector.110, ptr %5, i32 0, i32 0
  %7 = load ptr, ptr %6, align 8, !tbaa !560
  %8 = icmp ne ptr %7, null
  br i1 %8, label %9, label %14

9:                                                ; preds = %2
  %10 = load i32, ptr %4, align 4, !tbaa !19
  %11 = getelementptr inbounds nuw %class.vector.110, ptr %5, i32 0, i32 0
  %12 = load ptr, ptr %11, align 8, !tbaa !560
  %13 = getelementptr inbounds i32, ptr %12, i64 -1
  store i32 %10, ptr %13, align 4, !tbaa !19
  br label %15

14:                                               ; preds = %2
  br label %15

15:                                               ; preds = %14, %9
  ret void
}

; Function Attrs: mustprogress nounwind uwtable
define linkonce_odr hidden noundef nonnull align 4 dereferenceable(8) ptr @_ZNSt4pairIjjEaSEOS0_Qcl13_S_assignableIT_T0_EE(ptr noundef nonnull align 4 dereferenceable(8) %0, ptr noundef nonnull align 4 dereferenceable(8) %1) #6 comdat align 2 {
  %3 = alloca ptr, align 8
  %4 = alloca ptr, align 8
  store ptr %0, ptr %3, align 8, !tbaa !563
  store ptr %1, ptr %4, align 8, !tbaa !563
  %5 = load ptr, ptr %3, align 8
  %6 = load ptr, ptr %4, align 8, !tbaa !563
  %7 = getelementptr inbounds nuw %"struct.std::pair.111", ptr %6, i32 0, i32 0
  %8 = load i32, ptr %7, align 4, !tbaa !19
  %9 = getelementptr inbounds nuw %"struct.std::pair.111", ptr %5, i32 0, i32 0
  store i32 %8, ptr %9, align 4, !tbaa !184
  %10 = load ptr, ptr %4, align 8, !tbaa !563
  %11 = getelementptr inbounds nuw %"struct.std::pair.111", ptr %10, i32 0, i32 1
  %12 = load i32, ptr %11, align 4, !tbaa !19
  %13 = getelementptr inbounds nuw %"struct.std::pair.111", ptr %5, i32 0, i32 1
  store i32 %12, ptr %13, align 4, !tbaa !186
  ret ptr %5
}

; Function Attrs: mustprogress nounwind uwtable
define linkonce_odr i64 @_ZSt9make_pairIRKjS1_ESt4pairINSt25__strip_reference_wrapperINSt5decayIT_E4typeEE6__typeENS3_INS4_IT0_E4typeEE6__typeEEOS5_OSA_(ptr noundef nonnull align 4 dereferenceable(4) %0, ptr noundef nonnull align 4 dereferenceable(4) %1) #6 comdat {
  %3 = alloca %"struct.std::pair.111", align 4
  %4 = alloca ptr, align 8
  %5 = alloca ptr, align 8
  store ptr %0, ptr %4, align 8, !tbaa !183
  store ptr %1, ptr %5, align 8, !tbaa !183
  %6 = load ptr, ptr %4, align 8, !tbaa !183
  %7 = load ptr, ptr %5, align 8, !tbaa !183
  call void @_ZNSt4pairIjjEC2ERKjS2_Qcl16_S_constructibleIRKT_RKT0_EE(ptr noundef nonnull align 4 dereferenceable(8) %3, ptr noundef nonnull align 4 dereferenceable(4) %6, ptr noundef nonnull align 4 dereferenceable(4) %7) #3
  %8 = load i64, ptr %3, align 4
  ret i64 %8
}

; Function Attrs: inlinehint mustprogress nounwind uwtable
define linkonce_odr noundef nonnull align 4 dereferenceable(4) ptr @_ZSt3minIjERKT_S2_S2_(ptr noundef nonnull align 4 dereferenceable(4) %0, ptr noundef nonnull align 4 dereferenceable(4) %1) #7 comdat {
  %3 = alloca ptr, align 8
  %4 = alloca ptr, align 8
  %5 = alloca ptr, align 8
  store ptr %0, ptr %4, align 8, !tbaa !183
  store ptr %1, ptr %5, align 8, !tbaa !183
  %6 = load ptr, ptr %5, align 8, !tbaa !183
  %7 = load i32, ptr %6, align 4, !tbaa !19
  %8 = load ptr, ptr %4, align 8, !tbaa !183
  %9 = load i32, ptr %8, align 4, !tbaa !19
  %10 = icmp ult i32 %7, %9
  br i1 %10, label %11, label %13

11:                                               ; preds = %2
  %12 = load ptr, ptr %5, align 8, !tbaa !183
  store ptr %12, ptr %3, align 8
  br label %15

13:                                               ; preds = %2
  %14 = load ptr, ptr %4, align 8, !tbaa !183
  store ptr %14, ptr %3, align 8
  br label %15

15:                                               ; preds = %13, %11
  %16 = load ptr, ptr %3, align 8
  ret ptr %16
}

; Function Attrs: inlinehint mustprogress nounwind uwtable
define linkonce_odr noundef nonnull align 4 dereferenceable(4) ptr @_ZSt3maxIjERKT_S2_S2_(ptr noundef nonnull align 4 dereferenceable(4) %0, ptr noundef nonnull align 4 dereferenceable(4) %1) #7 comdat {
  %3 = alloca ptr, align 8
  %4 = alloca ptr, align 8
  %5 = alloca ptr, align 8
  store ptr %0, ptr %4, align 8, !tbaa !183
  store ptr %1, ptr %5, align 8, !tbaa !183
  %6 = load ptr, ptr %4, align 8, !tbaa !183
  %7 = load i32, ptr %6, align 4, !tbaa !19
  %8 = load ptr, ptr %5, align 8, !tbaa !183
  %9 = load i32, ptr %8, align 4, !tbaa !19
  %10 = icmp ult i32 %7, %9
  br i1 %10, label %11, label %13

11:                                               ; preds = %2
  %12 = load ptr, ptr %5, align 8, !tbaa !183
  store ptr %12, ptr %3, align 8
  br label %15

13:                                               ; preds = %2
  %14 = load ptr, ptr %4, align 8, !tbaa !183
  store ptr %14, ptr %3, align 8
  br label %15

15:                                               ; preds = %13, %11
  %16 = load ptr, ptr %3, align 8
  ret ptr %16
}

; Function Attrs: mustprogress nounwind uwtable
define linkonce_odr hidden noundef nonnull align 4 dereferenceable(8) ptr @_ZN6vectorISt4pairIjjELb0EjEixEj(ptr noundef nonnull align 8 dereferenceable(8) %0, i32 noundef %1) #6 comdat align 2 {
  %3 = alloca ptr, align 8
  %4 = alloca i32, align 4
  store ptr %0, ptr %3, align 8, !tbaa !558
  store i32 %1, ptr %4, align 4, !tbaa !19
  %5 = load ptr, ptr %3, align 8
  %6 = getelementptr inbounds nuw %class.vector.110, ptr %5, i32 0, i32 0
  %7 = load ptr, ptr %6, align 8, !tbaa !560
  %8 = load i32, ptr %4, align 4, !tbaa !19
  %9 = zext i32 %8 to i64
  %10 = getelementptr inbounds nuw %"struct.std::pair.111", ptr %7, i64 %9
  ret ptr %10
}

; Function Attrs: mustprogress nounwind uwtable
define linkonce_odr hidden noundef i32 @_ZNK6vectorISt4pairIjjELb0EjE4sizeEv(ptr noundef nonnull align 8 dereferenceable(8) %0) #6 comdat align 2 {
  %2 = alloca i32, align 4
  %3 = alloca ptr, align 8
  store ptr %0, ptr %3, align 8, !tbaa !558
  %4 = load ptr, ptr %3, align 8
  %5 = getelementptr inbounds nuw %class.vector.110, ptr %4, i32 0, i32 0
  %6 = load ptr, ptr %5, align 8, !tbaa !560
  %7 = icmp eq ptr %6, null
  br i1 %7, label %8, label %9

8:                                                ; preds = %1
  store i32 0, ptr %2, align 4
  br label %14

9:                                                ; preds = %1
  %10 = getelementptr inbounds nuw %class.vector.110, ptr %4, i32 0, i32 0
  %11 = load ptr, ptr %10, align 8, !tbaa !560
  %12 = getelementptr inbounds i32, ptr %11, i64 -1
  %13 = load i32, ptr %12, align 4, !tbaa !19
  store i32 %13, ptr %2, align 4
  br label %14

14:                                               ; preds = %9, %8
  %15 = load i32, ptr %2, align 4
  ret i32 %15
}

; Function Attrs: mustprogress uwtable
define hidden void @_ZN12seq_rewriter9intersectEjjR7svectorISt4pairIjjEjE(ptr noundef nonnull align 8 dereferenceable(497) %0, i32 noundef %1, i32 noundef %2, ptr noundef nonnull align 8 dereferenceable(8) %3) #4 align 2 {
  %5 = alloca ptr, align 8
  %6 = alloca i32, align 4
  %7 = alloca i32, align 4
  %8 = alloca ptr, align 8
  %9 = alloca i32, align 4
  %10 = alloca i32, align 4
  %11 = alloca i32, align 4
  %12 = alloca i32, align 4
  %13 = alloca i32, align 4
  %14 = alloca %"struct.std::pair.111", align 4
  store ptr %0, ptr %5, align 8, !tbaa !259
  store i32 %1, ptr %6, align 4, !tbaa !19
  store i32 %2, ptr %7, align 4, !tbaa !19
  store ptr %3, ptr %8, align 8, !tbaa !519
  call void @llvm.lifetime.start.p0(i64 4, ptr %9) #3
  store i32 0, ptr %9, align 4, !tbaa !19
  call void @llvm.lifetime.start.p0(i64 4, ptr %10) #3
  store i32 0, ptr %10, align 4, !tbaa !19
  br label %15

15:                                               ; preds = %53, %4
  %16 = load i32, ptr %10, align 4, !tbaa !19
  %17 = load ptr, ptr %8, align 8, !tbaa !519
  %18 = call noundef i32 @_ZNK6vectorISt4pairIjjELb0EjE4sizeEv(ptr noundef nonnull align 8 dereferenceable(8) %17)
  %19 = icmp ult i32 %16, %18
  br i1 %19, label %21, label %20

20:                                               ; preds = %15
  store i32 2, ptr %11, align 4
  br label %56

21:                                               ; preds = %15
  call void @llvm.lifetime.start.p0(i64 4, ptr %12) #3
  %22 = load ptr, ptr %8, align 8, !tbaa !519
  %23 = load i32, ptr %10, align 4, !tbaa !19
  %24 = call noundef nonnull align 4 dereferenceable(8) ptr @_ZN6vectorISt4pairIjjELb0EjEixEj(ptr noundef nonnull align 8 dereferenceable(8) %22, i32 noundef %23)
  %25 = getelementptr inbounds nuw %"struct.std::pair.111", ptr %24, i32 0, i32 0
  %26 = load i32, ptr %25, align 4, !tbaa !184
  store i32 %26, ptr %12, align 4, !tbaa !19
  call void @llvm.lifetime.start.p0(i64 4, ptr %13) #3
  %27 = load ptr, ptr %8, align 8, !tbaa !519
  %28 = load i32, ptr %10, align 4, !tbaa !19
  %29 = call noundef nonnull align 4 dereferenceable(8) ptr @_ZN6vectorISt4pairIjjELb0EjEixEj(ptr noundef nonnull align 8 dereferenceable(8) %27, i32 noundef %28)
  %30 = getelementptr inbounds nuw %"struct.std::pair.111", ptr %29, i32 0, i32 1
  %31 = load i32, ptr %30, align 4, !tbaa !186
  store i32 %31, ptr %13, align 4, !tbaa !19
  %32 = load i32, ptr %7, align 4, !tbaa !19
  %33 = load i32, ptr %12, align 4, !tbaa !19
  %34 = icmp ult i32 %32, %33
  br i1 %34, label %35, label %36

35:                                               ; preds = %21
  store i32 2, ptr %11, align 4
  br label %50

36:                                               ; preds = %21
  %37 = load i32, ptr %13, align 4, !tbaa !19
  %38 = load i32, ptr %6, align 4, !tbaa !19
  %39 = icmp uge i32 %37, %38
  br i1 %39, label %40, label %49

40:                                               ; preds = %36
  call void @llvm.lifetime.start.p0(i64 8, ptr %14) #3
  %41 = call noundef nonnull align 4 dereferenceable(4) ptr @_ZSt3maxIjERKT_S2_S2_(ptr noundef nonnull align 4 dereferenceable(4) %12, ptr noundef nonnull align 4 dereferenceable(4) %6)
  %42 = call noundef nonnull align 4 dereferenceable(4) ptr @_ZSt3minIjERKT_S2_S2_(ptr noundef nonnull align 4 dereferenceable(4) %13, ptr noundef nonnull align 4 dereferenceable(4) %7)
  %43 = call i64 @_ZSt9make_pairIRKjS1_ESt4pairINSt25__strip_reference_wrapperINSt5decayIT_E4typeEE6__typeENS3_INS4_IT0_E4typeEE6__typeEEOS5_OSA_(ptr noundef nonnull align 4 dereferenceable(4) %41, ptr noundef nonnull align 4 dereferenceable(4) %42)
  store i64 %43, ptr %14, align 4
  %44 = load ptr, ptr %8, align 8, !tbaa !519
  %45 = load i32, ptr %9, align 4, !tbaa !19
  %46 = add i32 %45, 1
  store i32 %46, ptr %9, align 4, !tbaa !19
  %47 = call noundef nonnull align 4 dereferenceable(8) ptr @_ZN6vectorISt4pairIjjELb0EjEixEj(ptr noundef nonnull align 8 dereferenceable(8) %44, i32 noundef %45)
  %48 = call noundef nonnull align 4 dereferenceable(8) ptr @_ZNSt4pairIjjEaSEOS0_Qcl13_S_assignableIT_T0_EE(ptr noundef nonnull align 4 dereferenceable(8) %47, ptr noundef nonnull align 4 dereferenceable(8) %14) #3
  call void @llvm.lifetime.end.p0(i64 8, ptr %14) #3
  br label %49

49:                                               ; preds = %40, %36
  store i32 0, ptr %11, align 4
  br label %50

50:                                               ; preds = %49, %35
  call void @llvm.lifetime.end.p0(i64 4, ptr %13) #3
  call void @llvm.lifetime.end.p0(i64 4, ptr %12) #3
  %51 = load i32, ptr %11, align 4
  switch i32 %51, label %56 [
    i32 0, label %52
  ]

52:                                               ; preds = %50
  br label %53

53:                                               ; preds = %52
  %54 = load i32, ptr %10, align 4, !tbaa !19
  %55 = add i32 %54, 1
  store i32 %55, ptr %10, align 4, !tbaa !19
  br label %15, !llvm.loop !557

56:                                               ; preds = %50, %20
  call void @llvm.lifetime.end.p0(i64 4, ptr %10) #3
  br label %57

57:                                               ; preds = %56
  %58 = load ptr, ptr %8, align 8, !tbaa !519
  %59 = load i32, ptr %9, align 4, !tbaa !19
  call void @_ZN6vectorISt4pairIjjELb0EjE6shrinkEj(ptr noundef nonnull align 8 dereferenceable(8) %58, i32 noundef %59)
  call void @llvm.lifetime.end.p0(i64 4, ptr %9) #3
  ret void
}