; Function Attrs: mustprogress nofree norecurse nosync nounwind memory(readwrite, inaccessiblemem: none) uwtable
define hidden void @_ZN12seq_rewriter9intersectEjjR7svectorISt4pairIjjEjE(ptr noundef nonnull readnone align 8 captures(none) dereferenceable(497) %0, i32 noundef %1, i32 noundef %2, ptr noundef nonnull readonly align 8 captures(none) dereferenceable(8) %3) local_unnamed_addr #12 align 2 {
  %5 = load ptr, ptr %3, align 8, !tbaa !137
  %6 = icmp eq ptr %5, null
  br i1 %6, label %_ZN6vectorISt4pairIjjELb0EjE6shrinkEj.exit, label %_ZNK6vectorISt4pairIjjELb0EjE4sizeEv.exit.thread.lr.ph

_ZNK6vectorISt4pairIjjELb0EjE4sizeEv.exit.thread.lr.ph: ; preds = %4
  %7 = getelementptr inbounds i8, ptr %5, i64 -4
  %8 = load i32, ptr %7, align 4, !tbaa !101
  %.not42 = icmp eq i32 %8, 0
  br i1 %.not42, label %.thread31, label %.lr.ph.preheader

.lr.ph.preheader:                                 ; preds = %_ZNK6vectorISt4pairIjjELb0EjE4sizeEv.exit.thread.lr.ph
  %9 = zext i32 %8 to i64
  br label %.lr.ph

.lr.ph:                                           ; preds = %19, %.lr.ph.preheader
  %indvars.iv = phi i64 [ 0, %.lr.ph.preheader ], [ %indvars.iv.next, %19 ]
  %.0123438 = phi i32 [ 0, %.lr.ph.preheader ], [ %.2, %19 ]
  %10 = getelementptr inbounds nuw %"struct.std::pair.111", ptr %5, i64 %indvars.iv
  %11 = load i32, ptr %10, align 4, !tbaa !151
  %12 = getelementptr inbounds nuw i8, ptr %10, i64 4
  %13 = load i32, ptr %12, align 4, !tbaa !719
  %.not13 = icmp ult i32 %2, %11
  %.not = icmp ult i32 %13, %1
  %or.cond = select i1 %.not13, i1 true, i1 %.not
  br i1 %or.cond, label %19, label %14

14:                                               ; preds = %.lr.ph
  %.sroa.speculated18 = tail call i32 @llvm.umax.i32(i32 %11, i32 %1)
  %.sroa.speculated = tail call i32 @llvm.umin.i32(i32 %2, i32 %13)
  %15 = add i32 %.0123438, 1
  %16 = zext i32 %.0123438 to i64
  %17 = getelementptr inbounds nuw %"struct.std::pair.111", ptr %5, i64 %16
  store i32 %.sroa.speculated18, ptr %17, align 4, !tbaa !151
  %18 = getelementptr inbounds nuw i8, ptr %17, i64 4
  store i32 %.sroa.speculated, ptr %18, align 4, !tbaa !719
  br label %19

19:                                               ; preds = %14, %.lr.ph
  %.2 = phi i32 [ %.0123438, %.lr.ph ], [ %15, %14 ]
  %indvars.iv.next = add nuw nsw i64 %indvars.iv, 1
  %20 = icmp samesign uge i64 %indvars.iv.next, %9
  %or.cond44.not = select i1 %.not13, i1 true, i1 %20
  br i1 %or.cond44.not, label %.thread31, label %.lr.ph

.thread31:                                        ; preds = %19, %_ZNK6vectorISt4pairIjjELb0EjE4sizeEv.exit.thread.lr.ph
  %.129 = phi i32 [ 0, %_ZNK6vectorISt4pairIjjELb0EjE4sizeEv.exit.thread.lr.ph ], [ %.2, %19 ]
  store i32 %.129, ptr %7, align 4, !tbaa !101
  br label %_ZN6vectorISt4pairIjjELb0EjE6shrinkEj.exit

_ZN6vectorISt4pairIjjELb0EjE6shrinkEj.exit:       ; preds = %4, %.thread31
  ret void
}